; Function Attrs: nounwind uwtable
define ptr @l_Lean_PersistentHashMap_foldlM___at_Lean_SSet_fold___spec__7___rarg(ptr noundef %0, ptr noundef %1, ptr noundef %2) local_unnamed_addr #0 {
  %4 = ptrtoint ptr %0 to i64
  %5 = and i64 %4, 1
  %.not.i45.i = icmp eq i64 %5, 0
  br i1 %.not.i45.i, label %9, label %6

6:                                                ; preds = %3
  %7 = lshr i64 %4, 1
  %8 = trunc i64 %7 to i32
  br label %lean_obj_tag.exit.i

9:                                                ; preds = %3
  %10 = getelementptr i8, ptr %0, i64 4
  %.val.i.i = load i32, ptr %10, align 4
  %11 = lshr i32 %.val.i.i, 24
  br label %lean_obj_tag.exit.i

lean_obj_tag.exit.i:                              ; preds = %9, %6
  %.0.i46.i = phi i32 [ %8, %6 ], [ %11, %9 ]
  %12 = icmp eq i32 %.0.i46.i, 0
  %13 = getelementptr inbounds nuw i8, ptr %0, i64 8
  %14 = load ptr, ptr %13, align 8, !tbaa !9
  br i1 %12, label %lean_nat_lt.exit.i, label %26

lean_nat_lt.exit.i:                               ; preds = %lean_obj_tag.exit.i
  %15 = getelementptr i8, ptr %14, i64 8
  %.val.i = load i64, ptr %15, align 8, !tbaa !14
  %.mask.i = and i64 %.val.i, 9223372036854775807
  %.not.i = icmp eq i64 %.mask.i, 0
  br i1 %.not.i, label %lean_dec.exit34.i, label %lean_dec.exit.i

lean_dec.exit34.i:                                ; preds = %lean_nat_lt.exit.i
  %16 = ptrtoint ptr %1 to i64
  %17 = and i64 %16, 1
  %.not48.i = icmp eq i64 %17, 0
  br i1 %.not48.i, label %18, label %l_Lean_PersistentHashMap_foldlMAux___at_Lean_SSet_fold___spec__8___rarg.exit

18:                                               ; preds = %lean_dec.exit34.i
  %19 = load i32, ptr %1, align 4, !tbaa !4
  %20 = icmp sgt i32 %19, 1
  br i1 %20, label %21, label %23, !prof !13

21:                                               ; preds = %18
  %22 = add nsw i32 %19, -1
  store i32 %22, ptr %1, align 4, !tbaa !4
  br label %l_Lean_PersistentHashMap_foldlMAux___at_Lean_SSet_fold___spec__8___rarg.exit

23:                                               ; preds = %18
  %.not.i35.i = icmp eq i32 %19, 0
  br i1 %.not.i35.i, label %l_Lean_PersistentHashMap_foldlMAux___at_Lean_SSet_fold___spec__8___rarg.exit, label %24

24:                                               ; preds = %23
  tail call void @lean_dec_ref_cold(ptr noundef nonnull %1) #3
  br label %l_Lean_PersistentHashMap_foldlMAux___at_Lean_SSet_fold___spec__8___rarg.exit

lean_dec.exit.i:                                  ; preds = %lean_nat_lt.exit.i
  %25 = tail call ptr @l_Array_foldlMUnsafe_fold___at_Lean_SSet_fold___spec__9___rarg(ptr noundef %1, ptr noundef nonnull %14, i64 noundef 0, i64 noundef %.mask.i, ptr noundef %2) #5
  br label %l_Lean_PersistentHashMap_foldlMAux___at_Lean_SSet_fold___spec__8___rarg.exit

26:                                               ; preds = %lean_obj_tag.exit.i
  %27 = getelementptr inbounds nuw i8, ptr %0, i64 16
  %28 = load ptr, ptr %27, align 8, !tbaa !9
  %29 = tail call ptr @l_Lean_PersistentHashMap_foldlMAux_traverse___at_Lean_SSet_fold___spec__10___rarg(ptr noundef %1, ptr noundef %14, ptr noundef %28, ptr nonnull poison, ptr noundef nonnull inttoptr (i64 1 to ptr), ptr noundef %2)
  br label %l_Lean_PersistentHashMap_foldlMAux___at_Lean_SSet_fold___spec__8___rarg.exit

l_Lean_PersistentHashMap_foldlMAux___at_Lean_SSet_fold___spec__8___rarg.exit: ; preds = %lean_dec.exit34.i, %21, %23, %24, %lean_dec.exit.i, %26
  %.2.i = phi ptr [ %29, %26 ], [ %25, %lean_dec.exit.i ], [ %2, %24 ], [ %2, %23 ], [ %2, %21 ], [ %2, %lean_dec.exit34.i ]
  ret ptr %.2.i
}